#include <math.h>
#include <stdio.h>
#include <stdlib.h>
#include <string.h>

int main()
{
    char s[100],a[100],b[100],t[100][100];
    int k=0,y=0;
    gets(s);
    gets(a);
    gets(b);
    for(int i=0;s[i]!='\0';i++)
    {
         if(s[i]==' ')
         {
             t[k][i]='\0';
             k++;
             y=i+1; 
          }
          else
            t[k][i-y]=s[i];
     }
     for(int j=0;j<=k;j++)
     {
          if(strcmp(t[j],a)==0)
                strcpy(t[j],b);
      }
     for(int x=0;x<k;x++)
         printf("%s ",t[x]);
     printf("%s",t[k]);
     return 0;
}
         
